target datalayout = "e-m:e-p270:32:32-p271:32:32-p272:64:64-i64:64-i128:128-f80:128-n8:16:32:64-S128"
target triple = "x86_64-pc-linux-gnu"

%struct.uv_timer_s = type { ptr, ptr, i32, ptr, [2 x ptr], %union.anon, ptr, i32, ptr, [3 x ptr], i64, i64, i64 }
%union.anon = type { [4 x ptr] }

; Function Attrs: nounwind uwtable
define dso_local i32 @uv_timer_again(ptr noundef %0) #0 {
  %2 = alloca i32, align 4
  %3 = alloca ptr, align 8
  store ptr %0, ptr %3, align 8
  %4 = load ptr, ptr %3, align 8
  %5 = getelementptr inbounds %struct.uv_timer_s, ptr %4, i32 0, i32 8
  %6 = load ptr, ptr %5, align 8
  %7 = icmp eq ptr %6, null
  br i1 %7, label %8, label %9

8:                                                ; preds = %1
  store i32 -22, ptr %2, align 4
  br label %29

9:                                                ; preds = %1
  %10 = load ptr, ptr %3, align 8
  %11 = getelementptr inbounds %struct.uv_timer_s, ptr %10, i32 0, i32 11
  %12 = load i64, ptr %11, align 8
  %13 = icmp ne i64 %12, 0
  br i1 %13, label %14, label %28

14:                                               ; preds = %9
  %15 = load ptr, ptr %3, align 8
  %16 = call i32 @uv_timer_stop(ptr noundef %15)
  %17 = load ptr, ptr %3, align 8
  %18 = load ptr, ptr %3, align 8
  %19 = getelementptr inbounds %struct.uv_timer_s, ptr %18, i32 0, i32 8
  %20 = load ptr, ptr %19, align 8
  %21 = load ptr, ptr %3, align 8
  %22 = getelementptr inbounds %struct.uv_timer_s, ptr %21, i32 0, i32 11
  %23 = load i64, ptr %22, align 8
  %24 = load ptr, ptr %3, align 8
  %25 = getelementptr inbounds %struct.uv_timer_s, ptr %24, i32 0, i32 11
  %26 = load i64, ptr %25, align 8
  %27 = call i32 @uv_timer_start(ptr noundef %17, ptr noundef %20, i64 noundef %23, i64 noundef %26)
  br label %28

28:                                               ; preds = %14, %9
  store i32 0, ptr %2, align 4
  br label %29

29:                                               ; preds = %28, %8
  %30 = load i32, ptr %2, align 4
  ret i32 %30
}