; Function Attrs: nofree norecurse nosync nounwind memory(readwrite, inaccessiblemem: none) uwtable
define dso_local range(i32 -22, 1) i32 @uv_timer_again(ptr noundef %0) local_unnamed_addr #1 {
  %2 = getelementptr inbounds nuw i8, ptr %0, i64 96
  %3 = load ptr, ptr %2, align 8
  %4 = icmp eq ptr %3, null
  br i1 %4, label %13, label %5

5:                                                ; preds = %1
  %6 = getelementptr inbounds nuw i8, ptr %0, i64 136
  %7 = load i64, ptr %6, align 8
  %.not = icmp eq i64 %7, 0
  br i1 %.not, label %13, label %8

8:                                                ; preds = %5
  %9 = tail call i32 @uv_timer_stop(ptr noundef nonnull %0)
  %10 = load ptr, ptr %2, align 8
  %11 = load i64, ptr %6, align 8
  %12 = tail call i32 @uv_timer_start(ptr noundef nonnull %0, ptr noundef %10, i64 noundef %11, i64 noundef %11)
  br label %13

13:                                               ; preds = %5, %8, %1
  %.0 = phi i32 [ -22, %1 ], [ 0, %8 ], [ 0, %5 ]
  ret i32 %.0
}